#include <math.h>
#include <stdio.h>
#include <stdlib.h>
#include <string.h>

int main()
{
	double a,b,c,d,e,f,t,h,s,m,z;
	scanf("%lf\n%lf\n%lf\n%lf\n%lf",&a,&b,&c,&d,&m);
	f=3.1415926;
	e=(a+b+c+d)*1.0/2;
	
	h=m*f/360;
	
	t=a*b*c*d*cos(h)*cos(h);
	z=(e-a)*(e-b)*(e-c)*(e-d)-t;
	if(z>0){
	s=sqrt((e-a)*(e-b)*(e-c)*(e-d)-t);
	printf("%.4lf\n",s);}
	else
		printf("Invalid input");
	return 0;}




