; ModuleID = '40/1020.c'
source_filename = "40/1020.c"
target datalayout = "e-m:e-p270:32:32-p271:32:32-p272:64:64-i64:64-f80:128-n8:16:32:64-S128"
target triple = "x86_64-pc-linux-gnu"

@.str = private unnamed_addr constant [20 x i8] c"%lf\0A%lf\0A%lf\0A%lf\0A%lf\00", align 1
@.str.1 = private unnamed_addr constant [7 x i8] c"%.4lf\0A\00", align 1
@.str.2 = private unnamed_addr constant [14 x i8] c"Invalid input\00", align 1

; Function Attrs: noinline nounwind uwtable
define dso_local i32 @main() #0 {
  %1 = alloca i32, align 4
  %2 = alloca double, align 8
  %3 = alloca double, align 8
  %4 = alloca double, align 8
  %5 = alloca double, align 8
  %6 = alloca double, align 8
  %7 = alloca double, align 8
  %8 = alloca double, align 8
  %9 = alloca double, align 8
  %10 = alloca double, align 8
  %11 = alloca double, align 8
  %12 = alloca double, align 8
  store i32 0, i32* %1, align 4
  %13 = call i32 (i8*, ...) @__isoc99_scanf(i8* getelementptr inbounds ([20 x i8], [20 x i8]* @.str, i64 0, i64 0), double* %2, double* %3, double* %4, double* %5, double* %11)
  store double 0x400921FB4D12D84A, double* %7, align 8
  %14 = load double, double* %2, align 8
  %15 = load double, double* %3, align 8
  %16 = fadd double %14, %15
  %17 = load double, double* %4, align 8
  %18 = fadd double %16, %17
  %19 = load double, double* %5, align 8
  %20 = fadd double %18, %19
  %21 = fmul double %20, 1.000000e+00
  %22 = fdiv double %21, 2.000000e+00
  store double %22, double* %6, align 8
  %23 = load double, double* %11, align 8
  %24 = load double, double* %7, align 8
  %25 = fmul double %23, %24
  %26 = fdiv double %25, 3.600000e+02
  store double %26, double* %9, align 8
  %27 = load double, double* %2, align 8
  %28 = load double, double* %3, align 8
  %29 = fmul double %27, %28
  %30 = load double, double* %4, align 8
  %31 = fmul double %29, %30
  %32 = load double, double* %5, align 8
  %33 = fmul double %31, %32
  %34 = load double, double* %9, align 8
  %35 = call double @cos(double %34) #3
  %36 = fmul double %33, %35
  %37 = load double, double* %9, align 8
  %38 = call double @cos(double %37) #3
  %39 = fmul double %36, %38
  store double %39, double* %8, align 8
  %40 = load double, double* %6, align 8
  %41 = load double, double* %2, align 8
  %42 = fsub double %40, %41
  %43 = load double, double* %6, align 8
  %44 = load double, double* %3, align 8
  %45 = fsub double %43, %44
  %46 = fmul double %42, %45
  %47 = load double, double* %6, align 8
  %48 = load double, double* %4, align 8
  %49 = fsub double %47, %48
  %50 = fmul double %46, %49
  %51 = load double, double* %6, align 8
  %52 = load double, double* %5, align 8
  %53 = fsub double %51, %52
  %54 = fmul double %50, %53
  %55 = load double, double* %8, align 8
  %56 = fsub double %54, %55
  store double %56, double* %12, align 8
  %57 = load double, double* %12, align 8
  %58 = fcmp ogt double %57, 0.000000e+00
  br i1 %58, label %59, label %80

59:                                               ; preds = %0
  %60 = load double, double* %6, align 8
  %61 = load double, double* %2, align 8
  %62 = fsub double %60, %61
  %63 = load double, double* %6, align 8
  %64 = load double, double* %3, align 8
  %65 = fsub double %63, %64
  %66 = fmul double %62, %65
  %67 = load double, double* %6, align 8
  %68 = load double, double* %4, align 8
  %69 = fsub double %67, %68
  %70 = fmul double %66, %69
  %71 = load double, double* %6, align 8
  %72 = load double, double* %5, align 8
  %73 = fsub double %71, %72
  %74 = fmul double %70, %73
  %75 = load double, double* %8, align 8
  %76 = fsub double %74, %75
  %77 = call double @sqrt(double %76) #3
  store double %77, double* %10, align 8
  %78 = load double, double* %10, align 8
  %79 = call i32 (i8*, ...) @printf(i8* getelementptr inbounds ([7 x i8], [7 x i8]* @.str.1, i64 0, i64 0), double %78)
  br label %82

80:                                               ; preds = %0
  %81 = call i32 (i8*, ...) @printf(i8* getelementptr inbounds ([14 x i8], [14 x i8]* @.str.2, i64 0, i64 0))
  br label %82

82:                                               ; preds = %80, %59
  ret i32 0
}

declare dso_local i32 @__isoc99_scanf(i8*, ...) #1

; Function Attrs: nounwind
declare dso_local double @cos(double) #2

; Function Attrs: nounwind
declare dso_local double @sqrt(double) #2

declare dso_local i32 @printf(i8*, ...) #1


!llvm.module.flags = !{!0}
!llvm.ident = !{!1}

!0 = !{i32 1, !"wchar_size", i32 4}
!1 = !{!"clang version 10.0.0-4ubuntu1 "}
